target datalayout = "e-m:e-p270:32:32-p271:32:32-p272:64:64-i64:64-i128:128-f80:128-n8:16:32:64-S128"
target triple = "x86_64-pc-linux-gnu"

; Function Attrs: nounwind uwtable
define internal ptr @ps_get_macintosh_name(i32 noundef %0) #0 {
  %2 = alloca i32, align 4
  store i32 %0, ptr %2, align 4, !tbaa !11
  %3 = load i32, ptr %2, align 4, !tbaa !11
  %4 = icmp uge i32 %3, 258
  br i1 %4, label %5, label %6

5:                                                ; preds = %1
  store i32 0, ptr %2, align 4, !tbaa !11
  br label %6

6:                                                ; preds = %5, %1
  %7 = load i32, ptr %2, align 4, !tbaa !11
  %8 = zext i32 %7 to i64
  %9 = getelementptr inbounds nuw [258 x i16], ptr @ft_mac_names, i64 0, i64 %8
  %10 = load i16, ptr %9, align 2, !tbaa !41
  %11 = sext i16 %10 to i32
  %12 = sext i32 %11 to i64
  %13 = getelementptr inbounds i8, ptr @ft_standard_glyph_names, i64 %12
  ret ptr %13
}