; Function Attrs: mustprogress nofree norecurse nosync nounwind willreturn memory(none) uwtable
define internal nonnull ptr @ps_get_macintosh_name(i32 noundef %0) #4 {
  %2 = icmp ugt i32 %0, 257
  %spec.store.select = select i1 %2, i32 0, i32 %0
  %3 = zext nneg i32 %spec.store.select to i64
  %4 = getelementptr inbounds nuw [258 x i16], ptr @ft_mac_names, i64 0, i64 %3
  %5 = load i16, ptr %4, align 2, !tbaa !31
  %6 = sext i16 %5 to i64
  %7 = getelementptr inbounds i8, ptr @ft_standard_glyph_names, i64 %6
  ret ptr %7
}